target datalayout = "e-m:e-p270:32:32-p271:32:32-p272:64:64-i64:64-i128:128-f80:128-n8:16:32:64-S128"
target triple = "x86_64-pc-linux-gnu"

%struct.job_record = type { i32, ptr, ptr, ptr, ptr, i16, i32, i32, i32, ptr, i32, ptr, ptr, i16, ptr, double, i64, ptr, ptr, ptr, ptr, ptr, ptr, i32, ptr, i32, i64, i64, i32, i32, ptr, i16, i64, i64, i8, i32, ptr, ptr, ptr, ptr, ptr, ptr, ptr, ptr, i32, ptr, ptr, i32, ptr, i32, ptr, i32, ptr, i32, ptr, ptr, ptr, ptr, ptr, ptr, i32, i16, i64, ptr, ptr, ptr, ptr, %struct.acct_policy_limit_set_t, i16, ptr, ptr, ptr, ptr, ptr, i32, ptr, ptr, ptr, ptr, ptr, i32, i32, ptr, ptr, ptr, i16, ptr, ptr, i8, ptr, ptr, i64, i64, i8, i32, i32, i8, i32, ptr, i32, i64, i32, ptr, ptr, ptr, i8, i16, i64, i32, ptr, ptr, ptr, ptr, ptr, i16, i32, ptr, ptr, ptr, ptr, i32, ptr, i32, i16, i64, ptr, i32, i32, ptr, i64, ptr, ptr, i64, i32, i32, i64, i32, i32, ptr, ptr, ptr, ptr, ptr, ptr, ptr, ptr, ptr, ptr, ptr, ptr, i32, ptr, i16, i16, i16, i16, ptr, i32, i32, i8, i64 }
%struct.acct_policy_limit_set_t = type { i16, i16, ptr }
%struct.slurm_step_id_msg = type { i64, i32, i32, i32 }
%struct.agent_arg_t = type { i32, i16, i32, i8, ptr, ptr, i16, i32, ptr, i16 }
%struct.stepmgr_ops_t = type { ptr, ptr, ptr, ptr, ptr, ptr, ptr, ptr, ptr, ptr }
%struct.step_record_t = type { i32, ptr, ptr, ptr, i32, ptr, ptr, i32, i32, i32, i32, i16, i16, ptr, i16, i32, ptr, i32, ptr, ptr, ptr, ptr, ptr, ptr, ptr, ptr, ptr, i64, i16, i64, i16, ptr, i16, ptr, i32, i64, i32, ptr, i32, i32, %struct.slurm_step_id_msg, ptr, ptr, ptr, ptr, i16, i64, i64, ptr, ptr, ptr, ptr, ptr, ptr, ptr, ptr }
%struct.srun_step_missing_msg = type { ptr, %struct.slurm_step_id_msg }

@.str = private unnamed_addr constant [12 x i8] c"srun_comm.c\00", align 1
@__func__._srun_set_addr = private unnamed_addr constant [15 x i8] c"_srun_set_addr\00", align 1
@stepmgr_ops = external global ptr, align 8
@__func__.srun_step_missing = private unnamed_addr constant [18 x i8] c"srun_step_missing\00", align 1
@__func__._srun_agent_launch = private unnamed_addr constant [19 x i8] c"_srun_agent_launch\00", align 1

; Function Attrs: nounwind uwtable
define internal void @_srun_agent_launch(ptr noundef %0, ptr noundef %1, i32 noundef %2, ptr noundef %3, i32 noundef %4, i16 noundef zeroext %5) #0 {
  %7 = alloca ptr, align 8
  %8 = alloca ptr, align 8
  %9 = alloca i32, align 4
  %10 = alloca ptr, align 8
  %11 = alloca i32, align 4
  %12 = alloca i16, align 2
  %13 = alloca ptr, align 8
  store ptr %0, ptr %7, align 8
  store ptr %1, ptr %8, align 8
  store i32 %2, ptr %9, align 4
  store ptr %3, ptr %10, align 8
  store i32 %4, ptr %11, align 4
  store i16 %5, ptr %12, align 2
  call void @llvm.lifetime.start.p0(i64 8, ptr %13) #6
  %14 = call ptr @slurm_xcalloc(i64 noundef 1, i64 noundef 56, i1 noundef zeroext true, i1 noundef zeroext false, ptr noundef @.str, i32 noundef 61, ptr noundef @__func__._srun_agent_launch)
  store ptr %14, ptr %13, align 8
  %15 = load ptr, ptr %13, align 8
  %16 = getelementptr inbounds nuw %struct.agent_arg_t, ptr %15, i32 0, i32 0
  store i32 1, ptr %16, align 8
  %17 = load ptr, ptr %13, align 8
  %18 = getelementptr inbounds nuw %struct.agent_arg_t, ptr %17, i32 0, i32 1
  store i16 0, ptr %18, align 4
  %19 = load ptr, ptr %7, align 8
  %20 = load ptr, ptr %13, align 8
  %21 = getelementptr inbounds nuw %struct.agent_arg_t, ptr %20, i32 0, i32 4
  store ptr %19, ptr %21, align 8
  %22 = load ptr, ptr %8, align 8
  %23 = call ptr @hostlist_create(ptr noundef %22)
  %24 = load ptr, ptr %13, align 8
  %25 = getelementptr inbounds nuw %struct.agent_arg_t, ptr %24, i32 0, i32 5
  store ptr %23, ptr %25, align 8
  %26 = load i32, ptr %9, align 4
  %27 = load ptr, ptr %13, align 8
  %28 = getelementptr inbounds nuw %struct.agent_arg_t, ptr %27, i32 0, i32 7
  store i32 %26, ptr %28, align 4
  %29 = load ptr, ptr %10, align 8
  %30 = load ptr, ptr %13, align 8
  %31 = getelementptr inbounds nuw %struct.agent_arg_t, ptr %30, i32 0, i32 8
  store ptr %29, ptr %31, align 8
  %32 = load ptr, ptr %13, align 8
  %33 = load i32, ptr %11, align 4
  call void @set_agent_arg_r_uid(ptr noundef %32, i32 noundef %33)
  %34 = load i16, ptr %12, align 2
  %35 = zext i16 %34 to i32
  %36 = icmp slt i32 11008, %35
  br i1 %36, label %37, label %38

37:                                               ; preds = %6
  br label %41

38:                                               ; preds = %6
  %39 = load i16, ptr %12, align 2
  %40 = zext i16 %39 to i32
  br label %41

41:                                               ; preds = %38, %37
  %42 = phi i32 [ 11008, %37 ], [ %40, %38 ]
  %43 = trunc i32 %42 to i16
  %44 = load ptr, ptr %13, align 8
  %45 = getelementptr inbounds nuw %struct.agent_arg_t, ptr %44, i32 0, i32 6
  store i16 %43, ptr %45, align 8
  %46 = load ptr, ptr @stepmgr_ops, align 8
  %47 = getelementptr inbounds nuw %struct.stepmgr_ops_t, ptr %46, i32 0, i32 8
  %48 = load ptr, ptr %47, align 8
  %49 = load ptr, ptr %13, align 8
  call void %48(ptr noundef %49)
  call void @llvm.lifetime.end.p0(i64 8, ptr %13) #6
  ret void
}

; Function Attrs: nounwind uwtable
define dso_local ptr @_srun_set_addr(ptr noundef %0) #0 {
  %2 = alloca ptr, align 8
  %3 = alloca ptr, align 8
  %4 = alloca ptr, align 8
  store ptr %0, ptr %2, align 8
  call void @llvm.lifetime.start.p0(i64 8, ptr %3) #6
  call void @llvm.lifetime.start.p0(i64 8, ptr %4) #6
  %5 = call ptr @slurm_xcalloc(i64 noundef 1, i64 noundef 128, i1 noundef zeroext true, i1 noundef zeroext false, ptr noundef @.str, i32 noundef 114, ptr noundef @__func__._srun_set_addr)
  store ptr %5, ptr %4, align 8
  %6 = load ptr, ptr %2, align 8
  %7 = getelementptr inbounds nuw %struct.step_record_t, ptr %6, i32 0, i32 20
  %8 = load ptr, ptr %7, align 8
  %9 = call ptr @slurm_conf_get_nodeaddr(ptr noundef %8)
  store ptr %9, ptr %3, align 8
  %10 = icmp ne ptr %9, null
  br i1 %10, label %11, label %17

11:                                               ; preds = %1
  %12 = load ptr, ptr %4, align 8
  %13 = load ptr, ptr %2, align 8
  %14 = getelementptr inbounds nuw %struct.step_record_t, ptr %13, i32 0, i32 28
  %15 = load i16, ptr %14, align 8
  %16 = load ptr, ptr %3, align 8
  call void @slurm_set_addr(ptr noundef %12, i16 noundef zeroext %15, ptr noundef %16)
  call void @slurm_xfree(ptr noundef %3)
  br label %25

17:                                               ; preds = %1
  %18 = load ptr, ptr %4, align 8
  %19 = load ptr, ptr %2, align 8
  %20 = getelementptr inbounds nuw %struct.step_record_t, ptr %19, i32 0, i32 28
  %21 = load i16, ptr %20, align 8
  %22 = load ptr, ptr %2, align 8
  %23 = getelementptr inbounds nuw %struct.step_record_t, ptr %22, i32 0, i32 20
  %24 = load ptr, ptr %23, align 8
  call void @slurm_set_addr(ptr noundef %18, i16 noundef zeroext %21, ptr noundef %24)
  br label %25

25:                                               ; preds = %17, %11
  %26 = load ptr, ptr %4, align 8
  call void @llvm.lifetime.end.p0(i64 8, ptr %4) #6
  call void @llvm.lifetime.end.p0(i64 8, ptr %3) #6
  ret ptr %26
}

; Function Attrs: nounwind uwtable
define dso_local void @srun_step_missing(ptr noundef %0, ptr noundef %1) #0 {
  %3 = alloca ptr, align 8
  %4 = alloca ptr, align 8
  %5 = alloca ptr, align 8
  %6 = alloca ptr, align 8
  store ptr %0, ptr %3, align 8
  store ptr %1, ptr %4, align 8
  call void @llvm.lifetime.start.p0(i64 8, ptr %5) #6
  call void @llvm.lifetime.start.p0(i64 8, ptr %6) #6
  %7 = load ptr, ptr %3, align 8
  %8 = getelementptr inbounds nuw %struct.step_record_t, ptr %7, i32 0, i32 28
  %9 = load i16, ptr %8, align 8
  %10 = zext i16 %9 to i32
  %11 = icmp ne i32 %10, 0
  br i1 %11, label %12, label %50

12:                                               ; preds = %2
  %13 = load ptr, ptr %3, align 8
  %14 = getelementptr inbounds nuw %struct.step_record_t, ptr %13, i32 0, i32 20
  %15 = load ptr, ptr %14, align 8
  %16 = icmp ne ptr %15, null
  br i1 %16, label %17, label %50

17:                                               ; preds = %12
  %18 = load ptr, ptr %3, align 8
  %19 = getelementptr inbounds nuw %struct.step_record_t, ptr %18, i32 0, i32 20
  %20 = load ptr, ptr %19, align 8
  %21 = getelementptr inbounds i8, ptr %20, i64 0
  %22 = load i8, ptr %21, align 1
  %23 = sext i8 %22 to i32
  %24 = icmp ne i32 %23, 0
  br i1 %24, label %25, label %50

25:                                               ; preds = %17
  %26 = load ptr, ptr %3, align 8
  %27 = call ptr @_srun_set_addr(ptr noundef %26)
  store ptr %27, ptr %5, align 8
  %28 = call ptr @slurm_xcalloc(i64 noundef 1, i64 noundef 32, i1 noundef zeroext true, i1 noundef zeroext false, ptr noundef @.str, i32 noundef 549, ptr noundef @__func__.srun_step_missing)
  store ptr %28, ptr %6, align 8
  %29 = load ptr, ptr %6, align 8
  %30 = getelementptr inbounds nuw %struct.srun_step_missing_msg, ptr %29, i32 0, i32 1
  %31 = load ptr, ptr %3, align 8
  %32 = getelementptr inbounds nuw %struct.step_record_t, ptr %31, i32 0, i32 40
  call void @llvm.memcpy.p0.p0.i64(ptr align 8 %30, ptr align 8 %32, i64 24, i1 false)
  %33 = load ptr, ptr %4, align 8
  %34 = call ptr @xstrdup(ptr noundef %33)
  %35 = load ptr, ptr %6, align 8
  %36 = getelementptr inbounds nuw %struct.srun_step_missing_msg, ptr %35, i32 0, i32 0
  store ptr %34, ptr %36, align 8
  %37 = load ptr, ptr %5, align 8
  %38 = load ptr, ptr %3, align 8
  %39 = getelementptr inbounds nuw %struct.step_record_t, ptr %38, i32 0, i32 20
  %40 = load ptr, ptr %39, align 8
  %41 = load ptr, ptr %6, align 8
  %42 = load ptr, ptr %3, align 8
  %43 = getelementptr inbounds nuw %struct.step_record_t, ptr %42, i32 0, i32 21
  %44 = load ptr, ptr %43, align 8
  %45 = getelementptr inbounds nuw %struct.job_record, ptr %44, i32 0, i32 150
  %46 = load i32, ptr %45, align 8
  %47 = load ptr, ptr %3, align 8
  %48 = getelementptr inbounds nuw %struct.step_record_t, ptr %47, i32 0, i32 30
  %49 = load i16, ptr %48, align 8
  call void @_srun_agent_launch(ptr noundef %37, ptr noundef %40, i32 noundef 7007, ptr noundef %41, i32 noundef %46, i16 noundef zeroext %49)
  br label %50

50:                                               ; preds = %25, %17, %12, %2
  call void @llvm.lifetime.end.p0(i64 8, ptr %6) #6
  call void @llvm.lifetime.end.p0(i64 8, ptr %5) #6
  ret void
}